target datalayout = "e-m:e-p270:32:32-p271:32:32-p272:64:64-i64:64-i128:128-f80:128-n8:16:32:64-S128"
target triple = "x86_64-pc-linux-gnu"

%"class.std::__shared_count" = type { ptr }
%"class.std::_Sp_counted_base" = type { ptr, i32, i32 }
%"class.std::shared_ptr.37" = type { %"class.std::__shared_ptr.38" }
%"class.std::__shared_ptr.38" = type { ptr, %"class.std::__shared_count" }
%"class.gmx::AnalysisNeighborhoodSearch" = type { %"class.std::shared_ptr.37" }

@__libc_single_threaded = external global i8, align 1

; Function Attrs: alwaysinline mustprogress nounwind uwtable
define linkonce_odr noundef i32 @_ZN9__gnu_cxx18__exchange_and_addEPVii(ptr noundef %0, i32 noundef %1) #10 comdat {
  %3 = alloca ptr, align 8
  %4 = alloca i32, align 4
  %5 = alloca i32, align 4
  %6 = alloca i32, align 4
  store ptr %0, ptr %3, align 8, !tbaa !56
  store i32 %1, ptr %4, align 4, !tbaa !57
  %7 = load ptr, ptr %3, align 8, !tbaa !56
  %8 = load i32, ptr %4, align 4, !tbaa !57
  store i32 %8, ptr %5, align 4, !tbaa !57
  %9 = load i32, ptr %5, align 4
  %10 = atomicrmw volatile add ptr %7, i32 %9 acq_rel, align 4
  store i32 %10, ptr %6, align 4
  %11 = load i32, ptr %6, align 4, !tbaa !57
  ret i32 %11
}

; Function Attrs: alwaysinline mustprogress nounwind uwtable
define linkonce_odr noundef i32 @_ZN9__gnu_cxx25__exchange_and_add_singleEPii(ptr noundef %0, i32 noundef %1) #10 comdat {
  %3 = alloca ptr, align 8
  %4 = alloca i32, align 4
  %5 = alloca i32, align 4
  store ptr %0, ptr %3, align 8, !tbaa !56
  store i32 %1, ptr %4, align 4, !tbaa !57
  call void @llvm.lifetime.start.p0(i64 4, ptr %5) #20
  %6 = load ptr, ptr %3, align 8, !tbaa !56
  %7 = load i32, ptr %6, align 4, !tbaa !57
  store i32 %7, ptr %5, align 4, !tbaa !57
  %8 = load i32, ptr %4, align 4, !tbaa !57
  %9 = load ptr, ptr %3, align 8, !tbaa !56
  %10 = load i32, ptr %9, align 4, !tbaa !57
  %11 = add nsw i32 %10, %8
  store i32 %11, ptr %9, align 4, !tbaa !57
  %12 = load i32, ptr %5, align 4, !tbaa !57
  call void @llvm.lifetime.end.p0(i64 4, ptr %5) #20
  ret i32 %12
}

; Function Attrs: alwaysinline mustprogress nounwind uwtable
define linkonce_odr noundef zeroext i1 @_ZN9__gnu_cxx20__is_single_threadedEv() #10 comdat {
  %1 = load i8, ptr @__libc_single_threaded, align 1, !tbaa !126
  %2 = icmp ne i8 %1, 0
  ret i1 %2
}

; Function Attrs: noinline noreturn nounwind uwtable
define linkonce_odr hidden void @__clang_call_terminate(ptr noundef %0) #5 comdat {
  %2 = call ptr @__cxa_begin_catch(ptr %0) #20
  call void @_ZSt9terminatev() #21
  unreachable
}

; Function Attrs: alwaysinline mustprogress uwtable
define linkonce_odr noundef i32 @_ZN9__gnu_cxx27__exchange_and_add_dispatchEPii(ptr noundef %0, i32 noundef %1) #7 comdat {
  %3 = alloca i32, align 4
  %4 = alloca ptr, align 8
  %5 = alloca i32, align 4
  store ptr %0, ptr %4, align 8, !tbaa !56
  store i32 %1, ptr %5, align 4, !tbaa !57
  %6 = call noundef zeroext i1 @_ZN9__gnu_cxx20__is_single_threadedEv() #20
  br i1 %6, label %7, label %11

7:                                                ; preds = %2
  %8 = load ptr, ptr %4, align 8, !tbaa !56
  %9 = load i32, ptr %5, align 4, !tbaa !57
  %10 = call noundef i32 @_ZN9__gnu_cxx25__exchange_and_add_singleEPii(ptr noundef %8, i32 noundef %9)
  store i32 %10, ptr %3, align 4
  br label %15

11:                                               ; preds = %2
  %12 = load ptr, ptr %4, align 8, !tbaa !56
  %13 = load i32, ptr %5, align 4, !tbaa !57
  %14 = call noundef i32 @_ZN9__gnu_cxx18__exchange_and_addEPVii(ptr noundef %12, i32 noundef %13)
  store i32 %14, ptr %3, align 4
  br label %15

15:                                               ; preds = %11, %7
  %16 = load i32, ptr %3, align 4
  ret i32 %16
}

; Function Attrs: inlinehint mustprogress nounwind uwtable
define linkonce_odr void @_ZNSt16_Sp_counted_baseILN9__gnu_cxx12_Lock_policyE2EE10_M_releaseEv(ptr noundef nonnull align 8 dereferenceable(16) %0) #4 comdat align 2 personality ptr @__gxx_personality_v0 {
  %2 = alloca ptr, align 8
  %3 = alloca i8, align 1
  %4 = alloca i8, align 1
  %5 = alloca i8, align 1
  %6 = alloca i32, align 4
  %7 = alloca i32, align 4
  %8 = alloca i64, align 8
  %9 = alloca ptr, align 8
  %10 = alloca i64, align 8
  %11 = alloca i32, align 4
  store ptr %0, ptr %2, align 8, !tbaa !116
  %12 = load ptr, ptr %2, align 8
  call void @llvm.lifetime.start.p0(i64 1, ptr %3) #20
  store i8 1, ptr %3, align 1, !tbaa !46
  call void @llvm.lifetime.start.p0(i64 1, ptr %4) #20
  store i8 1, ptr %4, align 1, !tbaa !46
  call void @llvm.lifetime.start.p0(i64 1, ptr %5) #20
  store i8 1, ptr %5, align 1, !tbaa !46
  call void @llvm.lifetime.start.p0(i64 4, ptr %6) #20
  store i32 32, ptr %6, align 4, !tbaa !57
  call void @llvm.lifetime.start.p0(i64 4, ptr %7) #20
  store i32 32, ptr %7, align 4, !tbaa !57
  call void @llvm.lifetime.start.p0(i64 8, ptr %8) #20
  store i64 4294967297, ptr %8, align 8, !tbaa !117
  call void @llvm.lifetime.start.p0(i64 8, ptr %9) #20
  %13 = getelementptr inbounds nuw %"class.std::_Sp_counted_base", ptr %12, i32 0, i32 1
  store ptr %13, ptr %9, align 8, !tbaa !119
  %14 = load ptr, ptr %9, align 8, !tbaa !119
  %15 = load atomic i64, ptr %14 acquire, align 8
  store i64 %15, ptr %10, align 8
  %16 = load i64, ptr %10, align 8, !tbaa !117
  %17 = icmp eq i64 %16, 4294967297
  br i1 %17, label %18, label %27

18:                                               ; preds = %1
  %19 = getelementptr inbounds nuw %"class.std::_Sp_counted_base", ptr %12, i32 0, i32 1
  store i32 0, ptr %19, align 8, !tbaa !121
  %20 = getelementptr inbounds nuw %"class.std::_Sp_counted_base", ptr %12, i32 0, i32 2
  store i32 0, ptr %20, align 4, !tbaa !123
  %21 = load ptr, ptr %12, align 8, !tbaa !124
  %22 = getelementptr inbounds ptr, ptr %21, i64 2
  %23 = load ptr, ptr %22, align 8
  call void %23(ptr noundef nonnull align 8 dereferenceable(16) %12) #20
  %24 = load ptr, ptr %12, align 8, !tbaa !124
  %25 = getelementptr inbounds ptr, ptr %24, i64 3
  %26 = load ptr, ptr %25, align 8
  call void %26(ptr noundef nonnull align 8 dereferenceable(16) %12) #20
  store i32 1, ptr %11, align 4
  br label %35

27:                                               ; preds = %1
  %28 = getelementptr inbounds nuw %"class.std::_Sp_counted_base", ptr %12, i32 0, i32 1
  %29 = invoke noundef i32 @_ZN9__gnu_cxx27__exchange_and_add_dispatchEPii(ptr noundef %28, i32 noundef -1)
          to label %30 unwind label %41

30:                                               ; preds = %27
  %31 = icmp eq i32 %29, 1
  %32 = call i1 @llvm.expect.i1(i1 %31, i1 false)
  br i1 %32, label %33, label %34

33:                                               ; preds = %30
  call void @_ZNSt16_Sp_counted_baseILN9__gnu_cxx12_Lock_policyE2EE24_M_release_last_use_coldEv(ptr noundef nonnull align 8 dereferenceable(16) %12) #20
  store i32 1, ptr %11, align 4
  br label %35

34:                                               ; preds = %30
  store i32 0, ptr %11, align 4
  br label %35

35:                                               ; preds = %34, %33, %18
  call void @llvm.lifetime.end.p0(i64 8, ptr %9) #20
  call void @llvm.lifetime.end.p0(i64 8, ptr %8) #20
  call void @llvm.lifetime.end.p0(i64 4, ptr %7) #20
  call void @llvm.lifetime.end.p0(i64 4, ptr %6) #20
  %36 = load i32, ptr %11, align 4
  switch i32 %36, label %38 [
    i32 0, label %37
  ]

37:                                               ; preds = %35
  store i32 0, ptr %11, align 4
  br label %38

38:                                               ; preds = %37, %35
  call void @llvm.lifetime.end.p0(i64 1, ptr %5) #20
  call void @llvm.lifetime.end.p0(i64 1, ptr %4) #20
  call void @llvm.lifetime.end.p0(i64 1, ptr %3) #20
  %39 = load i32, ptr %11, align 4
  switch i32 %39, label %44 [
    i32 0, label %40
    i32 1, label %40
  ]

40:                                               ; preds = %38, %38
  ret void

41:                                               ; preds = %27
  %42 = landingpad { ptr, i32 }
          catch ptr null
  %43 = extractvalue { ptr, i32 } %42, 0
  call void @__clang_call_terminate(ptr %43) #21
  unreachable

44:                                               ; preds = %38
  unreachable
}

; Function Attrs: mustprogress nounwind uwtable
define linkonce_odr void @_ZNSt14__shared_countILN9__gnu_cxx12_Lock_policyE2EED2Ev(ptr noundef nonnull align 8 dereferenceable(8) %0) unnamed_addr #1 comdat align 2 {
  %2 = alloca ptr, align 8
  store ptr %0, ptr %2, align 8, !tbaa !111
  %3 = load ptr, ptr %2, align 8
  %4 = getelementptr inbounds nuw %"class.std::__shared_count", ptr %3, i32 0, i32 0
  %5 = load ptr, ptr %4, align 8, !tbaa !113
  %6 = icmp ne ptr %5, null
  br i1 %6, label %7, label %10

7:                                                ; preds = %1
  %8 = getelementptr inbounds nuw %"class.std::__shared_count", ptr %3, i32 0, i32 0
  %9 = load ptr, ptr %8, align 8, !tbaa !113
  call void @_ZNSt16_Sp_counted_baseILN9__gnu_cxx12_Lock_policyE2EE10_M_releaseEv(ptr noundef nonnull align 8 dereferenceable(16) %9) #20
  br label %10

10:                                               ; preds = %7, %1
  ret void
}

; Function Attrs: mustprogress nounwind uwtable
define linkonce_odr void @_ZNSt14__shared_countILN9__gnu_cxx12_Lock_policyE2EE7_M_swapERS2_(ptr noundef nonnull align 8 dereferenceable(8) %0, ptr noundef nonnull align 8 dereferenceable(8) %1) #1 comdat align 2 {
  %3 = alloca ptr, align 8
  %4 = alloca ptr, align 8
  %5 = alloca ptr, align 8
  store ptr %0, ptr %3, align 8, !tbaa !111
  store ptr %1, ptr %4, align 8, !tbaa !111
  %6 = load ptr, ptr %3, align 8
  call void @llvm.lifetime.start.p0(i64 8, ptr %5) #20
  %7 = load ptr, ptr %4, align 8, !tbaa !111
  %8 = getelementptr inbounds nuw %"class.std::__shared_count", ptr %7, i32 0, i32 0
  %9 = load ptr, ptr %8, align 8, !tbaa !113
  store ptr %9, ptr %5, align 8, !tbaa !116
  %10 = getelementptr inbounds nuw %"class.std::__shared_count", ptr %6, i32 0, i32 0
  %11 = load ptr, ptr %10, align 8, !tbaa !113
  %12 = load ptr, ptr %4, align 8, !tbaa !111
  %13 = getelementptr inbounds nuw %"class.std::__shared_count", ptr %12, i32 0, i32 0
  store ptr %11, ptr %13, align 8, !tbaa !113
  %14 = load ptr, ptr %5, align 8, !tbaa !116
  %15 = getelementptr inbounds nuw %"class.std::__shared_count", ptr %6, i32 0, i32 0
  store ptr %14, ptr %15, align 8, !tbaa !113
  call void @llvm.lifetime.end.p0(i64 8, ptr %5) #20
  ret void
}

; Function Attrs: inlinehint mustprogress nounwind uwtable
define linkonce_odr void @_ZSt4swapIPN3gmx8internal30AnalysisNeighborhoodSearchImplEENSt9enable_ifIXsr6__and_ISt6__not_ISt15__is_tuple_likeIT_EESt21is_move_constructibleIS7_ESt18is_move_assignableIS7_EEE5valueEvE4typeERS7_SG_(ptr noundef nonnull align 8 dereferenceable(8) %0, ptr noundef nonnull align 8 dereferenceable(8) %1) #4 comdat {
  %3 = alloca ptr, align 8
  %4 = alloca ptr, align 8
  %5 = alloca ptr, align 8
  store ptr %0, ptr %3, align 8, !tbaa !447
  store ptr %1, ptr %4, align 8, !tbaa !447
  call void @llvm.lifetime.start.p0(i64 8, ptr %5) #20
  %6 = load ptr, ptr %3, align 8, !tbaa !447
  %7 = load ptr, ptr %6, align 8, !tbaa !4
  store ptr %7, ptr %5, align 8, !tbaa !4
  %8 = load ptr, ptr %4, align 8, !tbaa !447
  %9 = load ptr, ptr %8, align 8, !tbaa !4
  %10 = load ptr, ptr %3, align 8, !tbaa !447
  store ptr %9, ptr %10, align 8, !tbaa !4
  %11 = load ptr, ptr %5, align 8, !tbaa !4
  %12 = load ptr, ptr %4, align 8, !tbaa !447
  store ptr %11, ptr %12, align 8, !tbaa !4
  call void @llvm.lifetime.end.p0(i64 8, ptr %5) #20
  ret void
}

; Function Attrs: mustprogress nounwind uwtable
define linkonce_odr void @_ZNSt14__shared_countILN9__gnu_cxx12_Lock_policyE2EEC2Ev(ptr noundef nonnull align 8 dereferenceable(8) %0) unnamed_addr #1 comdat align 2 {
  %2 = alloca ptr, align 8
  store ptr %0, ptr %2, align 8, !tbaa !111
  %3 = load ptr, ptr %2, align 8
  %4 = getelementptr inbounds nuw %"class.std::__shared_count", ptr %3, i32 0, i32 0
  store ptr null, ptr %4, align 8, !tbaa !113
  ret void
}

; Function Attrs: mustprogress nounwind uwtable
define linkonce_odr void @_ZNSt12__shared_ptrIN3gmx8internal30AnalysisNeighborhoodSearchImplELN9__gnu_cxx12_Lock_policyE2EED2Ev(ptr noundef nonnull align 8 dereferenceable(16) %0) unnamed_addr #1 comdat align 2 {
  %2 = alloca ptr, align 8
  store ptr %0, ptr %2, align 8, !tbaa !388
  %3 = load ptr, ptr %2, align 8
  %4 = getelementptr inbounds nuw %"class.std::__shared_ptr.38", ptr %3, i32 0, i32 1
  call void @_ZNSt14__shared_countILN9__gnu_cxx12_Lock_policyE2EED2Ev(ptr noundef nonnull align 8 dereferenceable(8) %4) #20
  ret void
}

; Function Attrs: mustprogress nounwind uwtable
define linkonce_odr void @_ZNSt12__shared_ptrIN3gmx8internal30AnalysisNeighborhoodSearchImplELN9__gnu_cxx12_Lock_policyE2EE4swapERS5_(ptr noundef nonnull align 8 dereferenceable(16) %0, ptr noundef nonnull align 8 dereferenceable(16) %1) #1 comdat align 2 {
  %3 = alloca ptr, align 8
  %4 = alloca ptr, align 8
  store ptr %0, ptr %3, align 8, !tbaa !388
  store ptr %1, ptr %4, align 8, !tbaa !388
  %5 = load ptr, ptr %3, align 8
  %6 = getelementptr inbounds nuw %"class.std::__shared_ptr.38", ptr %5, i32 0, i32 0
  %7 = load ptr, ptr %4, align 8, !tbaa !388
  %8 = getelementptr inbounds nuw %"class.std::__shared_ptr.38", ptr %7, i32 0, i32 0
  call void @_ZSt4swapIPN3gmx8internal30AnalysisNeighborhoodSearchImplEENSt9enable_ifIXsr6__and_ISt6__not_ISt15__is_tuple_likeIT_EESt21is_move_constructibleIS7_ESt18is_move_assignableIS7_EEE5valueEvE4typeERS7_SG_(ptr noundef nonnull align 8 dereferenceable(8) %6, ptr noundef nonnull align 8 dereferenceable(8) %8) #20
  %9 = getelementptr inbounds nuw %"class.std::__shared_ptr.38", ptr %5, i32 0, i32 1
  %10 = load ptr, ptr %4, align 8, !tbaa !388
  %11 = getelementptr inbounds nuw %"class.std::__shared_ptr.38", ptr %10, i32 0, i32 1
  call void @_ZNSt14__shared_countILN9__gnu_cxx12_Lock_policyE2EE7_M_swapERS2_(ptr noundef nonnull align 8 dereferenceable(8) %9, ptr noundef nonnull align 8 dereferenceable(8) %11) #20
  ret void
}

; Function Attrs: mustprogress nounwind uwtable
define linkonce_odr void @_ZNSt12__shared_ptrIN3gmx8internal30AnalysisNeighborhoodSearchImplELN9__gnu_cxx12_Lock_policyE2EEC2Ev(ptr noundef nonnull align 8 dereferenceable(16) %0) unnamed_addr #1 comdat align 2 {
  %2 = alloca ptr, align 8
  store ptr %0, ptr %2, align 8, !tbaa !388
  %3 = load ptr, ptr %2, align 8
  %4 = getelementptr inbounds nuw %"class.std::__shared_ptr.38", ptr %3, i32 0, i32 0
  store ptr null, ptr %4, align 8, !tbaa !396
  %5 = getelementptr inbounds nuw %"class.std::__shared_ptr.38", ptr %3, i32 0, i32 1
  call void @_ZNSt14__shared_countILN9__gnu_cxx12_Lock_policyE2EEC2Ev(ptr noundef nonnull align 8 dereferenceable(8) %5) #20
  ret void
}

; Function Attrs: mustprogress nounwind uwtable
define linkonce_odr void @_ZNSt12__shared_ptrIN3gmx8internal30AnalysisNeighborhoodSearchImplELN9__gnu_cxx12_Lock_policyE2EE5resetEv(ptr noundef nonnull align 8 dereferenceable(16) %0) #1 comdat align 2 {
  %2 = alloca ptr, align 8
  %3 = alloca %"class.std::__shared_ptr.38", align 8
  store ptr %0, ptr %2, align 8, !tbaa !388
  %4 = load ptr, ptr %2, align 8
  call void @llvm.lifetime.start.p0(i64 16, ptr %3) #20
  call void @_ZNSt12__shared_ptrIN3gmx8internal30AnalysisNeighborhoodSearchImplELN9__gnu_cxx12_Lock_policyE2EEC2Ev(ptr noundef nonnull align 8 dereferenceable(16) %3) #20
  call void @_ZNSt12__shared_ptrIN3gmx8internal30AnalysisNeighborhoodSearchImplELN9__gnu_cxx12_Lock_policyE2EE4swapERS5_(ptr noundef nonnull align 8 dereferenceable(16) %3, ptr noundef nonnull align 8 dereferenceable(16) %4) #20
  call void @_ZNSt12__shared_ptrIN3gmx8internal30AnalysisNeighborhoodSearchImplELN9__gnu_cxx12_Lock_policyE2EED2Ev(ptr noundef nonnull align 8 dereferenceable(16) %3) #20
  call void @llvm.lifetime.end.p0(i64 16, ptr %3) #20
  ret void
}

; Function Attrs: mustprogress nounwind uwtable
define void @_ZN3gmx26AnalysisNeighborhoodSearch5resetEv(ptr noundef nonnull align 8 dereferenceable(16) %0) #1 align 2 {
  %2 = alloca ptr, align 8
  store ptr %0, ptr %2, align 8, !tbaa !445
  %3 = load ptr, ptr %2, align 8
  %4 = getelementptr inbounds nuw %"class.gmx::AnalysisNeighborhoodSearch", ptr %3, i32 0, i32 0
  call void @_ZNSt12__shared_ptrIN3gmx8internal30AnalysisNeighborhoodSearchImplELN9__gnu_cxx12_Lock_policyE2EE5resetEv(ptr noundef nonnull align 8 dereferenceable(16) %4) #20
  ret void
}